Certificate:
    Data:
        Version: 3 (0x2)
        Serial Number: 50 (0x32)
        Signature Algorithm: md5WithRSAEncryption
        Issuer: C=CL, ST=Santiago, L=Santiago, O=TRANSBANK S.A., OU=Riesgo Tecnologico, CN=TRANSBANK-CA/emailAddress=pki@trasbank.cl
        Validity
            Not Before: Jun 23 21:00:53 2010 GMT
            Not After : Jun 23 21:00:53 2011 GMT
        Subject: C=CL, ST=RM, L=Santiago, O=Banco Cr\xC3\x83\xC2\xA9dito e Inversiones, OU=Plataformas Centrales y DB, CN=Guillermo Mazuela
        Subject Public Key Info:
            Public Key Algorithm: dsaEncryption
            DSA Public Key:
                pub: 
                    00:83:9a:6f:5d:a0:a9:65:1c:ef:dd:99:69:b2:24:
                    0d:87:82:18:83:56:ff:f5:f8:a5:9f:c6:a7:75:62:
                    ee:99:78:1f:c9:b5:be:dd:ac:43:18:9f:fc:d4:e3:
                    c6:9a:4c:b9:2a:6a:3e:b3:49:d6:2b:b8:0c:97:6f:
                    a6:24:2a:83:74:03:22:28:59:2c:f4:91:f0:0a:c8:
                    55:79:07:0c:f7:1c:dc:93:ca:1d:90:4c:be:c4:9b:
                    70:b6:4c:2c:42:9f:a6:b1:ae:29:3e:5a:bc:73:4b:
                    42:a1:04:a7:06:a1:8b:25:0b:4a:1a:0e:dd:65:09:
                    9c:2d:89:30:64:f4:48:7d:45
                P:   
                    00:fd:7f:53:81:1d:75:12:29:52:df:4a:9c:2e:ec:
                    e4:e7:f6:11:b7:52:3c:ef:44:00:c3:1e:3f:80:b6:
                    51:26:69:45:5d:40:22:51:fb:59:3d:8d:58:fa:bf:
                    c5:f5:ba:30:f6:cb:9b:55:6c:d7:81:3b:80:1d:34:
                    6f:f2:66:60:b7:6b:99:50:a5:a4:9f:9f:e8:04:7b:
                    10:22:c2:4f:bb:a9:d7:fe:b7:c6:1b:f8:3b:57:e7:
                    c6:a8:a6:15:0f:04:fb:83:f6:d3:c5:1e:c3:02:35:
                    54:13:5a:16:91:32:f6:75:f3:ae:2b:61:d7:2a:ef:
                    f2:22:03:19:9d:d1:48:01:c7
                Q:   
                    00:97:60:50:8f:15:23:0b:cc:b2:92:b9:82:a2:eb:
                    84:0b:f0:58:1c:f5
                G:   
                    00:f7:e1:a0:85:d6:9b:3d:de:cb:bc:ab:5c:36:b8:
                    57:b9:79:94:af:bb:fa:3a:ea:82:f9:57:4c:0b:3d:
                    07:82:67:51:59:57:8e:ba:d4:59:4f:e6:71:07:10:
                    81:80:b4:49:16:71:23:e8:4c:28:16:13:b7:cf:09:
                    32:8c:c8:a6:e1:3c:16:7a:8b:54:7c:8d:28:e0:a3:
                    ae:1e:2b:b3:a6:75:91:6e:a3:7f:0b:fa:21:35:62:
                    f1:fb:62:7a:01:24:3b:cc:a4:f1:be:a8:51:90:89:
                    a8:83:df:e1:5a:e5:9f:06:92:8b:66:5e:80:7b:55:
                    25:64:01:4c:3b:fe:cf:49:2a
        X509v3 extensions:
            X509v3 Basic Constraints: 
                CA:FALSE
            Netscape Comment: 
                OpenSSL Generated Certificate
            X509v3 Subject Key Identifier: 
                1C:13:DE:46:C1:CE:9E:90:64:1C:C1:50:D0:53:1D:F7:55:F2:AC:06
            X509v3 Authority Key Identifier: 
                keyid:73:75:62:8A:C2:26:4E:62:41:0A:5B:09:71:76:38:59:4E:43:5A:1B
                DirName:/C=CL/ST=Santiago/L=Santiago/O=TRANSBANK S.A./OU=Riesgo Tecnologico/CN=TRANSBANK-CA/emailAddress=pki@trasbank.cl
                serial:00

            Netscape CA Revocation Url: 
                http://www.transbank.cl/crl/ca-crl.pem
    Signature Algorithm: md5WithRSAEncryption
        08:b4:60:e4:31:a5:77:4c:0a:6d:ff:33:70:38:8d:96:4e:fb:
        c9:68:c3:60:34:7a:3c:35:9a:97:30:20:99:87:cd:09:49:fa:
        16:9d:a9:a3:7d:27:01:34:3f:16:29:30:fb:80:2b:a3:92:81:
        a2:6a:d4:66:17:80:8c:4b:d1:2f:9e:94:1c:53:2b:81:3d:65:
        21:ee:61:88:78:2c:9d:55:3c:f1:aa:22:5d:3e:05:3c:d0:57:
        8b:52:7f:da:f5:b8:e3:d6:51:82:c0:dd:87:51:3a:3e:69:fe:
        33:3f:19:1e:2c:a5:7a:8d:15:8d:55:30:6a:f1:be:e9:b0:3f:
        57:d4
-----BEGIN CERTIFICATE-----
MIIFLjCCBJegAwIBAgIBMjANBgkqhkiG9w0BAQQFADCBoDELMAkGA1UEBhMCQ0wx
ETAPBgNVBAgTCFNhbnRpYWdvMREwDwYDVQQHEwhTYW50aWFnbzEXMBUGA1UEChMO
VFJBTlNCQU5LIFMuQS4xGzAZBgNVBAsTElJpZXNnbyBUZWNub2xvZ2ljbzEVMBMG
A1UEAxMMVFJBTlNCQU5LLUNBMR4wHAYJKoZIhvcNAQkBFg9wa2lAdHJhc2Jhbmsu
Y2wwHhcNMTAwNjIzMjEwMDUzWhcNMTEwNjIzMjEwMDUzWjCBlzELMAkGA1UEBhMC
Q0wxCzAJBgNVBAgTAlJNMREwDwYDVQQHEwhTYW50aWFnbzEnMCUGA1UECgweQmFu
Y28gQ3LDg8KpZGl0byBlIEludmVyc2lvbmVzMSMwIQYDVQQLExpQbGF0YWZvcm1h
cyBDZW50cmFsZXMgeSBEQjEaMBgGA1UEAxMRR3VpbGxlcm1vIE1henVlbGEwggG4
MIIBLAYHKoZIzjgEATCCAR8CgYEA/X9TgR11EilS30qcLuzk5/YRt1I870QAwx4/
gLZRJmlFXUAiUftZPY1Y+r/F9bow9subVWzXgTuAHTRv8mZgt2uZUKWkn5/oBHsQ
IsJPu6nX/rfGG/g7V+fGqKYVDwT7g/bTxR7DAjVUE1oWkTL2dfOuK2HXKu/yIgMZ
ndFIAccCFQCXYFCPFSMLzLKSuYKi64QL8Fgc9QKBgQD34aCF1ps93su8q1w2uFe5
eZSvu/o66oL5V0wLPQeCZ1FZV4661FlP5nEHEIGAtEkWcSPoTCgWE7fPCTKMyKbh
PBZ6i1R8jSjgo64eK7OmdZFuo38L+iE1YvH7YnoBJDvMpPG+qFGQiaiD3+Fa5Z8G
kotmXoB7VSVkAUw7/s9JKgOBhQACgYEAg5pvXaCpZRzv3ZlpsiQNh4IYg1b/9fil
n8andWLumXgfybW+3axDGJ/81OPGmky5Kmo+s0nWK7gMl2+mJCqDdAMiKFks9JHw
CshVeQcM9xzck8odkEy+xJtwtkwsQp+msa4pPlq8c0tCoQSnBqGLJQtKGg7dZQmc
LYkwZPRIfUWjggFjMIIBXzAJBgNVHRMEAjAAMCwGCWCGSAGG+EIBDQQfFh1PcGVu
U1NMIEdlbmVyYXRlZCBDZXJ0aWZpY2F0ZTAdBgNVHQ4EFgQUHBPeRsHOnpBkHMFQ
0FMd91XyrAYwgc0GA1UdIwSBxTCBwoAUc3ViisImTmJBClsJcXY4WU5DWhuhgaak
gaMwgaAxCzAJBgNVBAYTAkNMMREwDwYDVQQIEwhTYW50aWFnbzERMA8GA1UEBxMI
U2FudGlhZ28xFzAVBgNVBAoTDlRSQU5TQkFOSyBTLkEuMRswGQYDVQQLExJSaWVz
Z28gVGVjbm9sb2dpY28xFTATBgNVBAMTDFRSQU5TQkFOSy1DQTEeMBwGCSqGSIb3
DQEJARYPcGtpQHRyYXNiYW5rLmNsggEAMDUGCWCGSAGG+EIBBAQoFiZodHRwOi8v
d3d3LnRyYW5zYmFuay5jbC9jcmwvY2EtY3JsLnBlbTANBgkqhkiG9w0BAQQFAAOB
gQAItGDkMaV3TApt/zNwOI2WTvvJaMNgNHo8NZqXMCCZh80JSfoWnamjfScBND8W
KTD7gCujkoGiatRmF4CMS9EvnpQcUyuBPWUh7mGIeCydVTzxqiJdPgU80FeLUn/a
9bjj1lGCwN2HUTo+af4zPxkeLKV6jRWNVTBq8b7psD9X1A==
-----END CERTIFICATE-----
