Certificate:
    Data:
        Version: 3 (0x2)
        Serial Number: 49 (0x31)
        Signature Algorithm: md5WithRSAEncryption
        Issuer: C=CL, ST=Santiago, L=Santiago, O=TRANSBANK S.A., OU=Riesgo Tecnologico, CN=TRANSBANK-CA/emailAddress=pki@trasbank.cl
        Validity
            Not Before: Jun 18 23:21:52 2010 GMT
            Not After : Jun 18 23:21:52 2011 GMT
        Subject: C=CL, ST=Santiago, L=Santiago, O=BCIPROD, OU=PLATCENTRAL, CN=wg_BCI/emailAddress=gmazuel@bci.cl
        Subject Public Key Info:
            Public Key Algorithm: rsaEncryption
            RSA Public Key: (1024 bit)
                Modulus (1024 bit):
                    00:c3:0e:c1:b9:34:cf:cb:65:0e:4b:85:25:f5:19:
                    d9:5b:24:42:19:8c:a7:be:17:d9:6b:e5:b2:e5:00:
                    a1:f2:be:ad:d4:86:4a:47:90:dc:53:ce:d7:5e:56:
                    d3:7d:e2:01:cd:24:ba:d0:87:db:7c:3c:1d:3d:69:
                    f7:b4:92:32:28:26:3f:f8:aa:95:ef:ec:2f:15:59:
                    9d:16:1c:1f:6f:12:72:81:49:d1:ae:a3:16:20:8f:
                    35:c9:8c:fb:1e:5b:be:79:a4:68:f2:2b:23:22:ab:
                    dd:09:b1:08:d7:2c:ed:df:be:f3:80:b0:c6:6d:99:
                    64:b5:2c:f2:22:dc:7f:fb:35
                Exponent: 65537 (0x10001)
        X509v3 extensions:
            X509v3 Basic Constraints: 
                CA:FALSE
            Netscape Comment: 
                OpenSSL Generated Certificate
            X509v3 Subject Key Identifier: 
                47:AA:E8:56:91:46:32:22:09:2A:E9:6E:F7:35:7F:2D:CD:28:99:97
            X509v3 Authority Key Identifier: 
                keyid:73:75:62:8A:C2:26:4E:62:41:0A:5B:09:71:76:38:59:4E:43:5A:1B
                DirName:/C=CL/ST=Santiago/L=Santiago/O=TRANSBANK S.A./OU=Riesgo Tecnologico/CN=TRANSBANK-CA/emailAddress=pki@trasbank.cl
                serial:00

            Netscape CA Revocation Url: 
                http://www.transbank.cl/crl/ca-crl.pem
    Signature Algorithm: md5WithRSAEncryption
        38:6f:20:64:75:92:d1:f8:c3:1a:ce:bf:8f:2b:ae:99:30:9c:
        d6:9d:e5:18:65:ee:fa:06:69:9c:79:fa:d1:98:1e:bc:3a:26:
        40:8f:4f:aa:33:09:65:c3:71:55:64:20:34:ca:47:10:98:eb:
        18:8e:bb:30:b8:a3:50:f4:26:6a:67:07:6c:9b:a7:be:2b:33:
        44:27:86:f2:fd:6d:2e:d4:4b:4a:38:a0:76:2d:3b:d1:60:c4:
        68:fc:19:c7:9f:45:78:51:ed:98:be:88:52:96:95:84:9d:2d:
        2b:68:c0:3e:10:cb:18:5e:78:24:bf:7b:69:2c:7c:36:d8:fb:
        be:71
-----BEGIN CERTIFICATE-----
MIIECDCCA3GgAwIBAgIBMTANBgkqhkiG9w0BAQQFADCBoDELMAkGA1UEBhMCQ0wx
ETAPBgNVBAgTCFNhbnRpYWdvMREwDwYDVQQHEwhTYW50aWFnbzEXMBUGA1UEChMO
VFJBTlNCQU5LIFMuQS4xGzAZBgNVBAsTElJpZXNnbyBUZWNub2xvZ2ljbzEVMBMG
A1UEAxMMVFJBTlNCQU5LLUNBMR4wHAYJKoZIhvcNAQkBFg9wa2lAdHJhc2Jhbmsu
Y2wwHhcNMTAwNjE4MjMyMTUyWhcNMTEwNjE4MjMyMTUyWjCBizELMAkGA1UEBhMC
Q0wxETAPBgNVBAgTCFNhbnRpYWdvMREwDwYDVQQHEwhTYW50aWFnbzEQMA4GA1UE
ChMHQkNJUFJPRDEUMBIGA1UECxMLUExBVENFTlRSQUwxDzANBgNVBAMUBndnX0JD
STEdMBsGCSqGSIb3DQEJARYOZ21henVlbEBiY2kuY2wwgZ8wDQYJKoZIhvcNAQEB
BQADgY0AMIGJAoGBAMMOwbk0z8tlDkuFJfUZ2VskQhmMp74X2WvlsuUAofK+rdSG
SkeQ3FPO115W033iAc0kutCH23w8HT1p97SSMigmP/iqle/sLxVZnRYcH28ScoFJ
0a6jFiCPNcmM+x5bvnmkaPIrIyKr3QmxCNcs7d++84Cwxm2ZZLUs8iLcf/s1AgMB
AAGjggFjMIIBXzAJBgNVHRMEAjAAMCwGCWCGSAGG+EIBDQQfFh1PcGVuU1NMIEdl
bmVyYXRlZCBDZXJ0aWZpY2F0ZTAdBgNVHQ4EFgQUR6roVpFGMiIJKulu9zV/Lc0o
mZcwgc0GA1UdIwSBxTCBwoAUc3ViisImTmJBClsJcXY4WU5DWhuhgaakgaMwgaAx
CzAJBgNVBAYTAkNMMREwDwYDVQQIEwhTYW50aWFnbzERMA8GA1UEBxMIU2FudGlh
Z28xFzAVBgNVBAoTDlRSQU5TQkFOSyBTLkEuMRswGQYDVQQLExJSaWVzZ28gVGVj
bm9sb2dpY28xFTATBgNVBAMTDFRSQU5TQkFOSy1DQTEeMBwGCSqGSIb3DQEJARYP
cGtpQHRyYXNiYW5rLmNsggEAMDUGCWCGSAGG+EIBBAQoFiZodHRwOi8vd3d3LnRy
YW5zYmFuay5jbC9jcmwvY2EtY3JsLnBlbTANBgkqhkiG9w0BAQQFAAOBgQA4byBk
dZLR+MMazr+PK66ZMJzWneUYZe76BmmcefrRmB68OiZAj0+qMwllw3FVZCA0ykcQ
mOsYjrswuKNQ9CZqZwdsm6e+KzNEJ4by/W0u1EtKOKB2LTvRYMRo/BnHn0V4Ue2Y
vohSlpWEnS0raMA+EMsYXngkv3tpLHw22Pu+cQ==
-----END CERTIFICATE-----
