Certificate:
    Data:
        Version: 3 (0x2)
        Serial Number: 30 (0x1e)
        Signature Algorithm: md5WithRSAEncryption
        Issuer: C=CL, ST=Santiago, L=Santiago, O=TRANSBANK S.A., OU=Riesgo Tecnologico, CN=TRANSBANK-CA/emailAddress=pki@trasbank.cl
        Validity
            Not Before: Jun 24 05:26:05 2009 GMT
            Not After : Jun 24 05:26:05 2010 GMT
        Subject: C=CL, ST=Santiago, L=Santiago, O=BCIPROD, OU=PLATCENTRAL, CN=wg_BCI/emailAddress=gmazuel@bci.cl
        Subject Public Key Info:
            Public Key Algorithm: rsaEncryption
            RSA Public Key: (1024 bit)
                Modulus (1024 bit):
                    00:db:66:e2:f9:39:42:16:ed:b4:65:49:d9:1b:76:
                    82:20:d9:9e:40:be:43:d8:59:1d:67:d1:79:02:1a:
                    d3:c1:35:37:37:e7:62:ea:46:f4:55:f6:96:e2:4d:
                    cc:bf:3d:a7:af:8c:1d:07:4e:8d:c6:0e:b6:e9:a4:
                    a6:63:40:4d:03:5c:6f:26:ac:9d:11:58:41:d1:c2:
                    39:6d:54:33:d4:ce:a6:3a:49:d9:72:6e:71:64:7d:
                    1d:15:2a:d5:32:ba:33:c9:42:cf:34:b4:2d:0b:03:
                    85:46:e4:0c:94:58:06:e8:32:fa:7f:e4:11:80:58:
                    a8:4b:ef:2c:8a:1d:4f:9e:1f
                Exponent: 65537 (0x10001)
        X509v3 extensions:
            X509v3 Basic Constraints: 
                CA:FALSE
            Netscape Comment: 
                OpenSSL Generated Certificate
            X509v3 Subject Key Identifier: 
                98:B8:73:3A:21:5A:53:8F:5F:EB:0F:23:26:F4:10:03:CA:E6:14:E2
            X509v3 Authority Key Identifier: 
                keyid:73:75:62:8A:C2:26:4E:62:41:0A:5B:09:71:76:38:59:4E:43:5A:1B
                DirName:/C=CL/ST=Santiago/L=Santiago/O=TRANSBANK S.A./OU=Riesgo Tecnologico/CN=TRANSBANK-CA/emailAddress=pki@trasbank.cl
                serial:00

            Netscape CA Revocation Url: 
                http://www.transbank.cl/crl/ca-crl.pem
    Signature Algorithm: md5WithRSAEncryption
        68:36:f3:27:1e:f1:2d:ac:be:5d:64:32:f7:50:20:b6:84:f9:
        f8:03:b1:ae:a9:93:95:c1:60:62:7b:af:8b:60:c2:9a:4c:09:
        30:48:51:1e:74:ac:9c:07:e5:7a:57:8a:e3:94:f9:18:53:14:
        be:69:50:75:83:5f:09:d3:1d:11:57:98:2c:67:d2:e5:2b:b1:
        ab:96:a6:b4:f0:7b:f1:57:7c:72:4c:4d:bb:0a:e7:79:cb:d1:
        3f:1f:0e:da:56:74:a5:7a:f6:39:8d:fd:1e:bf:ae:90:76:ae:
        f3:e3:1b:62:26:1f:08:e8:f5:c7:40:d5:1e:2d:0c:56:b9:1e:
        92:d2
-----BEGIN CERTIFICATE-----
MIIECDCCA3GgAwIBAgIBHjANBgkqhkiG9w0BAQQFADCBoDELMAkGA1UEBhMCQ0wx
ETAPBgNVBAgTCFNhbnRpYWdvMREwDwYDVQQHEwhTYW50aWFnbzEXMBUGA1UEChMO
VFJBTlNCQU5LIFMuQS4xGzAZBgNVBAsTElJpZXNnbyBUZWNub2xvZ2ljbzEVMBMG
A1UEAxMMVFJBTlNCQU5LLUNBMR4wHAYJKoZIhvcNAQkBFg9wa2lAdHJhc2Jhbmsu
Y2wwHhcNMDkwNjI0MDUyNjA1WhcNMTAwNjI0MDUyNjA1WjCBizELMAkGA1UEBhMC
Q0wxETAPBgNVBAgTCFNhbnRpYWdvMREwDwYDVQQHEwhTYW50aWFnbzEQMA4GA1UE
ChMHQkNJUFJPRDEUMBIGA1UECxMLUExBVENFTlRSQUwxDzANBgNVBAMUBndnX0JD
STEdMBsGCSqGSIb3DQEJARYOZ21henVlbEBiY2kuY2wwgZ8wDQYJKoZIhvcNAQEB
BQADgY0AMIGJAoGBANtm4vk5QhbttGVJ2Rt2giDZnkC+Q9hZHWfReQIa08E1Nzfn
YupG9FX2luJNzL89p6+MHQdOjcYOtumkpmNATQNcbyasnRFYQdHCOW1UM9TOpjpJ
2XJucWR9HRUq1TK6M8lCzzS0LQsDhUbkDJRYBugy+n/kEYBYqEvvLIodT54fAgMB
AAGjggFjMIIBXzAJBgNVHRMEAjAAMCwGCWCGSAGG+EIBDQQfFh1PcGVuU1NMIEdl
bmVyYXRlZCBDZXJ0aWZpY2F0ZTAdBgNVHQ4EFgQUmLhzOiFaU49f6w8jJvQQA8rm
FOIwgc0GA1UdIwSBxTCBwoAUc3ViisImTmJBClsJcXY4WU5DWhuhgaakgaMwgaAx
CzAJBgNVBAYTAkNMMREwDwYDVQQIEwhTYW50aWFnbzERMA8GA1UEBxMIU2FudGlh
Z28xFzAVBgNVBAoTDlRSQU5TQkFOSyBTLkEuMRswGQYDVQQLExJSaWVzZ28gVGVj
bm9sb2dpY28xFTATBgNVBAMTDFRSQU5TQkFOSy1DQTEeMBwGCSqGSIb3DQEJARYP
cGtpQHRyYXNiYW5rLmNsggEAMDUGCWCGSAGG+EIBBAQoFiZodHRwOi8vd3d3LnRy
YW5zYmFuay5jbC9jcmwvY2EtY3JsLnBlbTANBgkqhkiG9w0BAQQFAAOBgQBoNvMn
HvEtrL5dZDL3UCC2hPn4A7GuqZOVwWBie6+LYMKaTAkwSFEedKycB+V6V4rjlPkY
UxS+aVB1g18J0x0RV5gsZ9LlK7Grlqa08HvxV3xyTE27Cud5y9E/Hw7aVnSlevY5
jf0ev66Qdq7z4xtiJh8I6PXHQNUeLQxWuR6S0g==
-----END CERTIFICATE-----
